; Function Attrs: mustprogress nofree norecurse nosync nounwind willreturn memory(argmem: read) uwtable
define internal noundef double @_ZNSt17_Function_handlerIFddEN8QuantLib12_GLOBAL__N_111MonomialFctEE9_M_invokeERKSt9_Any_dataOd(ptr nocapture noundef nonnull readonly align 8 dereferenceable(16) %__functor, ptr nocapture noundef nonnull readonly align 8 dereferenceable(8) %__args) #17 align 2 {
entry:
  %call.val = load i64, ptr %__functor, align 8
  %__args.val = load double, ptr %__args, align 8, !tbaa !98
  %cmp1.not.i.i.i = icmp eq i64 %call.val, 0
  br i1 %cmp1.not.i.i.i, label %_ZSt10__invoke_rIdRN8QuantLib12_GLOBAL__N_111MonomialFctEJdEENSt9enable_ifIX16is_invocable_r_vIT_T0_DpT1_EES5_E4typeEOS6_DpOS7_.exit, label %for.body.i.i.i

for.body.i.i.i:                                   ; preds = %entry, %for.body.i.i.i
  %i.03.i.i.i = phi i64 [ %inc.i.i.i, %for.body.i.i.i ], [ 0, %entry ]
  %ret.02.i.i.i = phi double [ %mul.i.i.i, %for.body.i.i.i ], [ 1.000000e+00, %entry ]
  %mul.i.i.i = fmul double %__args.val, %ret.02.i.i.i
  %inc.i.i.i = add nuw i64 %i.03.i.i.i, 1
  %exitcond.not.i.i.i = icmp eq i64 %inc.i.i.i, %call.val
  br i1 %exitcond.not.i.i.i, label %_ZSt10__invoke_rIdRN8QuantLib12_GLOBAL__N_111MonomialFctEJdEENSt9enable_ifIX16is_invocable_r_vIT_T0_DpT1_EES5_E4typeEOS6_DpOS7_.exit, label %for.body.i.i.i, !llvm.loop !99

_ZSt10__invoke_rIdRN8QuantLib12_GLOBAL__N_111MonomialFctEJdEENSt9enable_ifIX16is_invocable_r_vIT_T0_DpT1_EES5_E4typeEOS6_DpOS7_.exit: ; preds = %for.body.i.i.i, %entry
  %ret.0.lcssa.i.i.i = phi double [ 1.000000e+00, %entry ], [ %mul.i.i.i, %for.body.i.i.i ]
  ret double %ret.0.lcssa.i.i.i
}